target datalayout = "e-m:e-p270:32:32-p271:32:32-p272:64:64-i64:64-i128:128-f80:128-n8:16:32:64-S128"
target triple = "x86_64-pc-linux-gnu"

%"struct.Luau::Position" = type { i32, i32 }
%"struct.Luau::FindFullAncestry" = type <{ %"class.Luau::AstVisitor", %"class.std::vector", %"struct.Luau::Position", %"struct.Luau::Position", i8, [7 x i8] }>
%"class.Luau::AstVisitor" = type { ptr }
%"class.std::vector" = type { %"struct.std::_Vector_base" }
%"struct.std::_Vector_base" = type { %"struct.std::_Vector_base<Luau::AstNode *, std::allocator<Luau::AstNode *>>::_Vector_impl" }
%"struct.std::_Vector_base<Luau::AstNode *, std::allocator<Luau::AstNode *>>::_Vector_impl" = type { %"struct.std::_Vector_base<Luau::AstNode *, std::allocator<Luau::AstNode *>>::_Vector_impl_data" }
%"struct.std::_Vector_base<Luau::AstNode *, std::allocator<Luau::AstNode *>>::_Vector_impl_data" = type { ptr, ptr, ptr }

; Function Attrs: mustprogress uwtable
define dso_local noundef zeroext i1 @_ZN4Luau16FindFullAncestry5visitEPNS_7AstTypeE(ptr noundef nonnull align 8 dereferenceable(56) %0, ptr noundef %1) unnamed_addr #5 align 2 {
  %3 = alloca i1, align 1
  %4 = alloca ptr, align 8
  %5 = alloca ptr, align 8
  store ptr %0, ptr %4, align 8, !tbaa !8
  store ptr %1, ptr %5, align 8, !tbaa !32
  %6 = load ptr, ptr %4, align 8
  %7 = getelementptr inbounds nuw %"struct.Luau::FindFullAncestry", ptr %6, i32 0, i32 4
  %8 = load i8, ptr %7, align 8, !tbaa !18, !range !16, !noundef !17
  %9 = trunc i8 %8 to i1
  br i1 %9, label %10, label %13

10:                                               ; preds = %2
  %11 = load ptr, ptr %5, align 8, !tbaa !32
  %12 = call noundef zeroext i1 @_ZN4Luau16FindFullAncestry5visitEPNS_7AstNodeE(ptr noundef nonnull align 8 dereferenceable(56) %6, ptr noundef %11)
  store i1 %12, ptr %3, align 1
  br label %14

13:                                               ; preds = %2
  store i1 false, ptr %3, align 1
  br label %14

14:                                               ; preds = %13, %10
  %15 = load i1, ptr %3, align 1
  ret i1 %15
}