; Function Attrs: mustprogress uwtable
define dso_local noundef zeroext i1 @_ZN4Luau16FindFullAncestry5visitEPNS_7AstTypeE(ptr noundef nonnull align 8 dereferenceable(56) %0, ptr noundef %1) unnamed_addr #4 align 2 {
  %3 = getelementptr inbounds nuw i8, ptr %0, i64 48
  %4 = load i8, ptr %3, align 8, !tbaa !10, !range !22, !noundef !23
  %5 = trunc nuw i8 %4 to i1
  br i1 %5, label %6, label %8

6:                                                ; preds = %2
  %7 = tail call noundef zeroext i1 @_ZN4Luau16FindFullAncestry5visitEPNS_7AstNodeE(ptr noundef nonnull align 8 dereferenceable(56) %0, ptr noundef %1)
  br label %8

8:                                                ; preds = %2, %6
  %.0 = phi i1 [ %7, %6 ], [ false, %2 ]
  ret i1 %.0
}